target datalayout = "e-m:e-p270:32:32-p271:32:32-p272:64:64-i64:64-i128:128-f80:128-n8:16:32:64-S128"
target triple = "x86_64-pc-linux-gnu"

%struct.wscbor_head_t = type { i32, i32, ptr, i8, i8, i64 }

; Function Attrs: null_pointer_is_valid sspstrong uwtable
define internal void @wscbor_read_unsigned(ptr noundef %0, ptr noundef %1) #0 {
  %3 = alloca ptr, align 8
  %4 = alloca ptr, align 8
  store ptr %0, ptr %3, align 8
  store ptr %1, ptr %4, align 8
  %5 = load ptr, ptr %3, align 8
  %6 = getelementptr inbounds nuw %struct.wscbor_head_t, ptr %5, i32 0, i32 4
  %7 = load i8, ptr %6, align 1
  %8 = zext i8 %7 to i32
  switch i32 %8, label %76 [
    i32 24, label %9
    i32 25, label %26
    i32 26, label %43
    i32 27, label %60
  ]

9:                                                ; preds = %2
  %10 = load ptr, ptr %4, align 8
  %11 = load ptr, ptr %3, align 8
  %12 = getelementptr inbounds nuw %struct.wscbor_head_t, ptr %11, i32 0, i32 0
  %13 = load i32, ptr %12, align 8
  %14 = load ptr, ptr %3, align 8
  %15 = getelementptr inbounds nuw %struct.wscbor_head_t, ptr %14, i32 0, i32 1
  %16 = load i32, ptr %15, align 4
  %17 = add i32 %13, %16
  %18 = call zeroext i8 @tvb_get_uint8(ptr noundef %10, i32 noundef %17)
  %19 = zext i8 %18 to i64
  %20 = load ptr, ptr %3, align 8
  %21 = getelementptr inbounds nuw %struct.wscbor_head_t, ptr %20, i32 0, i32 5
  store i64 %19, ptr %21, align 8
  %22 = load ptr, ptr %3, align 8
  %23 = getelementptr inbounds nuw %struct.wscbor_head_t, ptr %22, i32 0, i32 1
  %24 = load i32, ptr %23, align 4
  %25 = add i32 %24, 1
  store i32 %25, ptr %23, align 4
  br label %90

26:                                               ; preds = %2
  %27 = load ptr, ptr %4, align 8
  %28 = load ptr, ptr %3, align 8
  %29 = getelementptr inbounds nuw %struct.wscbor_head_t, ptr %28, i32 0, i32 0
  %30 = load i32, ptr %29, align 8
  %31 = load ptr, ptr %3, align 8
  %32 = getelementptr inbounds nuw %struct.wscbor_head_t, ptr %31, i32 0, i32 1
  %33 = load i32, ptr %32, align 4
  %34 = add i32 %30, %33
  %35 = call zeroext i16 @tvb_get_uint16(ptr noundef %27, i32 noundef %34, i32 noundef 0)
  %36 = zext i16 %35 to i64
  %37 = load ptr, ptr %3, align 8
  %38 = getelementptr inbounds nuw %struct.wscbor_head_t, ptr %37, i32 0, i32 5
  store i64 %36, ptr %38, align 8
  %39 = load ptr, ptr %3, align 8
  %40 = getelementptr inbounds nuw %struct.wscbor_head_t, ptr %39, i32 0, i32 1
  %41 = load i32, ptr %40, align 4
  %42 = add i32 %41, 2
  store i32 %42, ptr %40, align 4
  br label %90

43:                                               ; preds = %2
  %44 = load ptr, ptr %4, align 8
  %45 = load ptr, ptr %3, align 8
  %46 = getelementptr inbounds nuw %struct.wscbor_head_t, ptr %45, i32 0, i32 0
  %47 = load i32, ptr %46, align 8
  %48 = load ptr, ptr %3, align 8
  %49 = getelementptr inbounds nuw %struct.wscbor_head_t, ptr %48, i32 0, i32 1
  %50 = load i32, ptr %49, align 4
  %51 = add i32 %47, %50
  %52 = call i32 @tvb_get_uint32(ptr noundef %44, i32 noundef %51, i32 noundef 0)
  %53 = zext i32 %52 to i64
  %54 = load ptr, ptr %3, align 8
  %55 = getelementptr inbounds nuw %struct.wscbor_head_t, ptr %54, i32 0, i32 5
  store i64 %53, ptr %55, align 8
  %56 = load ptr, ptr %3, align 8
  %57 = getelementptr inbounds nuw %struct.wscbor_head_t, ptr %56, i32 0, i32 1
  %58 = load i32, ptr %57, align 4
  %59 = add i32 %58, 4
  store i32 %59, ptr %57, align 4
  br label %90

60:                                               ; preds = %2
  %61 = load ptr, ptr %4, align 8
  %62 = load ptr, ptr %3, align 8
  %63 = getelementptr inbounds nuw %struct.wscbor_head_t, ptr %62, i32 0, i32 0
  %64 = load i32, ptr %63, align 8
  %65 = load ptr, ptr %3, align 8
  %66 = getelementptr inbounds nuw %struct.wscbor_head_t, ptr %65, i32 0, i32 1
  %67 = load i32, ptr %66, align 4
  %68 = add i32 %64, %67
  %69 = call i64 @tvb_get_uint64(ptr noundef %61, i32 noundef %68, i32 noundef 0)
  %70 = load ptr, ptr %3, align 8
  %71 = getelementptr inbounds nuw %struct.wscbor_head_t, ptr %70, i32 0, i32 5
  store i64 %69, ptr %71, align 8
  %72 = load ptr, ptr %3, align 8
  %73 = getelementptr inbounds nuw %struct.wscbor_head_t, ptr %72, i32 0, i32 1
  %74 = load i32, ptr %73, align 4
  %75 = add i32 %74, 8
  store i32 %75, ptr %73, align 4
  br label %90

76:                                               ; preds = %2
  %77 = load ptr, ptr %3, align 8
  %78 = getelementptr inbounds nuw %struct.wscbor_head_t, ptr %77, i32 0, i32 4
  %79 = load i8, ptr %78, align 1
  %80 = zext i8 %79 to i32
  %81 = icmp sle i32 %80, 23
  br i1 %81, label %82, label %89

82:                                               ; preds = %76
  %83 = load ptr, ptr %3, align 8
  %84 = getelementptr inbounds nuw %struct.wscbor_head_t, ptr %83, i32 0, i32 4
  %85 = load i8, ptr %84, align 1
  %86 = zext i8 %85 to i64
  %87 = load ptr, ptr %3, align 8
  %88 = getelementptr inbounds nuw %struct.wscbor_head_t, ptr %87, i32 0, i32 5
  store i64 %86, ptr %88, align 8
  br label %89

89:                                               ; preds = %82, %76
  br label %90

90:                                               ; preds = %89, %60, %43, %26, %9
  ret void
}