; Function Attrs: null_pointer_is_valid sspstrong uwtable
define internal fastcc void @wscbor_read_unsigned(ptr noundef captures(none) %0, ptr noundef nonnull %1) unnamed_addr #0 {
  %3 = getelementptr inbounds nuw i8, ptr %0, i64 17
  %4 = load i8, ptr %3, align 1
  switch i8 %4, label %44 [
    i8 24, label %5
    i8 25, label %15
    i8 26, label %25
    i8 27, label %35
  ]

5:                                                ; preds = %2
  %6 = load i32, ptr %0, align 8
  %7 = getelementptr inbounds nuw i8, ptr %0, i64 4
  %8 = load i32, ptr %7, align 4
  %9 = add i32 %8, %6
  %10 = tail call zeroext i8 @tvb_get_uint8(ptr noundef nonnull %1, i32 noundef %9)
  %11 = zext i8 %10 to i64
  %12 = getelementptr inbounds nuw i8, ptr %0, i64 24
  store i64 %11, ptr %12, align 8
  %13 = load i32, ptr %7, align 4
  %14 = add i32 %13, 1
  store i32 %14, ptr %7, align 4
  br label %49

15:                                               ; preds = %2
  %16 = load i32, ptr %0, align 8
  %17 = getelementptr inbounds nuw i8, ptr %0, i64 4
  %18 = load i32, ptr %17, align 4
  %19 = add i32 %18, %16
  %20 = tail call zeroext i16 @tvb_get_uint16(ptr noundef nonnull %1, i32 noundef %19, i32 noundef 0)
  %21 = zext i16 %20 to i64
  %22 = getelementptr inbounds nuw i8, ptr %0, i64 24
  store i64 %21, ptr %22, align 8
  %23 = load i32, ptr %17, align 4
  %24 = add i32 %23, 2
  store i32 %24, ptr %17, align 4
  br label %49

25:                                               ; preds = %2
  %26 = load i32, ptr %0, align 8
  %27 = getelementptr inbounds nuw i8, ptr %0, i64 4
  %28 = load i32, ptr %27, align 4
  %29 = add i32 %28, %26
  %30 = tail call i32 @tvb_get_uint32(ptr noundef nonnull %1, i32 noundef %29, i32 noundef 0)
  %31 = zext i32 %30 to i64
  %32 = getelementptr inbounds nuw i8, ptr %0, i64 24
  store i64 %31, ptr %32, align 8
  %33 = load i32, ptr %27, align 4
  %34 = add i32 %33, 4
  store i32 %34, ptr %27, align 4
  br label %49

35:                                               ; preds = %2
  %36 = load i32, ptr %0, align 8
  %37 = getelementptr inbounds nuw i8, ptr %0, i64 4
  %38 = load i32, ptr %37, align 4
  %39 = add i32 %38, %36
  %40 = tail call i64 @tvb_get_uint64(ptr noundef nonnull %1, i32 noundef %39, i32 noundef 0)
  %41 = getelementptr inbounds nuw i8, ptr %0, i64 24
  store i64 %40, ptr %41, align 8
  %42 = load i32, ptr %37, align 4
  %43 = add i32 %42, 8
  store i32 %43, ptr %37, align 4
  br label %49

44:                                               ; preds = %2
  %45 = icmp ult i8 %4, 24
  br i1 %45, label %46, label %49

46:                                               ; preds = %44
  %47 = zext nneg i8 %4 to i64
  %48 = getelementptr inbounds nuw i8, ptr %0, i64 24
  store i64 %47, ptr %48, align 8
  br label %49

49:                                               ; preds = %44, %46, %35, %25, %15, %5
  ret void
}